#include <math.h>
#include <stdio.h>
#include <stdlib.h>
#include <string.h>
#include <iostream>
using namespace std;

int main()
{
    int i,j;
    while(1)
    {
           int array[16]={0};
            int n=0,sum=0;          
            while(1)
            {
                    cin>>array[n];
                    if(array[n]==0 || array[n]==-1)
                    {
                      n--;
                      break;
                    }
                   n++;
            }
            if(array[0]==-1) 
             break;
            for(i=0;i<=n;++i)
            {
             for(j=i;j<=n;++j)
              {
                      if((array[i]==array[j]*2) || (array[j]==array[i]*2))
                            {
                             sum++;
                            }
                    }
            }
            cout<<sum<<endl;
    }
 
    return 0;
}

